target datalayout = "e-m:e-p270:32:32-p271:32:32-p272:64:64-i64:64-i128:128-f80:128-n8:16:32:64-S128"
target triple = "x86_64-pc-linux-gnu"

%struct.AVCodecContext = type { ptr, i32, i32, ptr, i32, i32, ptr, ptr, ptr, i64, i32, i32, ptr, i32, %struct.AVRational, %struct.AVRational, %struct.AVRational, i32, i32, i32, i32, i32, %struct.AVRational, i32, i32, i32, i32, i32, i32, i32, i32, i32, i32, i32, ptr, ptr, i32, float, float, float, float, float, float, float, float, float, i32, i32, i32, i32, i32, i32, i32, i32, i32, i32, i32, i32, ptr, ptr, ptr, i32, i32, i32, i32, i32, i32, i32, i32, i32, i32, %struct.AVChannelLayout, i32, i32, i32, i32, i32, i32, i32, i32, ptr, i32, i32, i32, float, float, i32, i32, i32, i32, i32, ptr, i64, i64, float, float, i32, i32, ptr, ptr, i32, i32, i32, i32, i32, ptr, ptr, ptr, ptr, i32, i32, [8 x i64], i32, i32, i32, i32, i32, i32, i32, ptr, ptr, i32, i32, i32, i32, i32, i32, i32, i32, i32, i32, ptr, ptr, i32, i32, ptr, ptr, ptr, ptr, i32, i32, i64, i32, i32, i64, ptr, i64, ptr, i32, ptr, i32 }
%struct.AVRational = type { i32, i32 }
%struct.AVChannelLayout = type { i32, i32, %union.anon.1, ptr }
%union.anon.1 = type { i64 }

@.str.6 = private unnamed_addr constant [82 x i8] c"Unsupported resolution %dx%d. SGI does not support resolutions above 65535x65535\0A\00", align 1

; Function Attrs: cold nounwind optsize uwtable
define internal i32 @encode_init(ptr noundef %0) #0 {
  %2 = alloca i32, align 4
  %3 = alloca ptr, align 8
  store ptr %0, ptr %3, align 8, !tbaa !4
  %4 = load ptr, ptr %3, align 8, !tbaa !4
  %5 = getelementptr inbounds nuw %struct.AVCodecContext, ptr %4, i32 0, i32 18
  %6 = load i32, ptr %5, align 8, !tbaa !9
  %7 = icmp sgt i32 %6, 65535
  br i1 %7, label %13, label %8

8:                                                ; preds = %1
  %9 = load ptr, ptr %3, align 8, !tbaa !4
  %10 = getelementptr inbounds nuw %struct.AVCodecContext, ptr %9, i32 0, i32 19
  %11 = load i32, ptr %10, align 4, !tbaa !29
  %12 = icmp sgt i32 %11, 65535
  br i1 %12, label %13, label %21

13:                                               ; preds = %8, %1
  %14 = load ptr, ptr %3, align 8, !tbaa !4
  %15 = load ptr, ptr %3, align 8, !tbaa !4
  %16 = getelementptr inbounds nuw %struct.AVCodecContext, ptr %15, i32 0, i32 18
  %17 = load i32, ptr %16, align 8, !tbaa !9
  %18 = load ptr, ptr %3, align 8, !tbaa !4
  %19 = getelementptr inbounds nuw %struct.AVCodecContext, ptr %18, i32 0, i32 19
  %20 = load i32, ptr %19, align 4, !tbaa !29
  call void (ptr, i32, ptr, ...) @av_log(ptr noundef %14, i32 noundef 16, ptr noundef @.str.6, i32 noundef %17, i32 noundef %20)
  store i32 -1094995529, ptr %2, align 4
  br label %22

21:                                               ; preds = %8
  store i32 0, ptr %2, align 4
  br label %22

22:                                               ; preds = %21, %13
  %23 = load i32, ptr %2, align 4
  ret i32 %23
}