; Function Attrs: cold nounwind optsize uwtable
define internal range(i32 -1094995529, 1) i32 @encode_init(ptr noundef %0) #0 {
  %2 = getelementptr inbounds nuw i8, ptr %0, i64 112
  %3 = load i32, ptr %2, align 8, !tbaa !4
  %4 = icmp sgt i32 %3, 65535
  %.phi.trans.insert = getelementptr inbounds nuw i8, ptr %0, i64 116
  %.pre = load i32, ptr %.phi.trans.insert, align 4, !tbaa !27
  %5 = icmp sgt i32 %.pre, 65535
  %or.cond = select i1 %4, i1 true, i1 %5
  br i1 %or.cond, label %._crit_edge, label %6

._crit_edge:                                      ; preds = %1
  tail call void (ptr, i32, ptr, ...) @av_log(ptr noundef nonnull %0, i32 noundef 16, ptr noundef nonnull @.str.6, i32 noundef %3, i32 noundef %.pre) #7
  br label %6

6:                                                ; preds = %1, %._crit_edge
  %.0 = phi i32 [ -1094995529, %._crit_edge ], [ 0, %1 ]
  ret i32 %.0
}